; Function Attrs: mustprogress nofree norecurse nosync nounwind willreturn memory(read, inaccessiblemem: none) uwtable
define i32 @H5HF__dtable_size_to_rows(ptr noundef readonly captures(none) %0, i64 noundef %1) local_unnamed_addr #4 {
  %3 = load i8, ptr @H5HF_init_g, align 1, !tbaa !3, !range !7, !noundef !8
  %4 = trunc nuw i8 %3 to i1
  %5 = load i8, ptr @H5_libterm_g, align 1, !range !7
  %6 = trunc nuw i8 %5 to i1
  %7 = xor i1 %6, true
  %8 = select i1 %4, i1 true, i1 %7
  br i1 %8, label %9, label %66, !prof !9

9:                                                ; preds = %2
  %10 = lshr i64 %1, 32
  %.not.i = icmp ult i64 %1, 4294967296
  br i1 %.not.i, label %37, label %11

11:                                               ; preds = %9
  %12 = lshr i64 %1, 48
  %.not26.i = icmp ult i64 %1, 281474976710656
  br i1 %.not26.i, label %25, label %13

13:                                               ; preds = %11
  %.not28.i = icmp ult i64 %1, 72057594037927936
  br i1 %.not28.i, label %20, label %14

14:                                               ; preds = %13
  %15 = lshr i64 %1, 56
  %16 = getelementptr inbounds nuw [256 x i8], ptr @LogTable256, i64 0, i64 %15
  %17 = load i8, ptr %16, align 1, !tbaa !35
  %18 = zext i8 %17 to i32
  %19 = add nuw nsw i32 %18, 56
  br label %H5VM_log2_gen.exit

20:                                               ; preds = %13
  %21 = getelementptr inbounds nuw [256 x i8], ptr @LogTable256, i64 0, i64 %12
  %22 = load i8, ptr %21, align 1, !tbaa !35
  %23 = zext i8 %22 to i32
  %24 = add nuw nsw i32 %23, 48
  br label %H5VM_log2_gen.exit

25:                                               ; preds = %11
  %.not27.i = icmp samesign ult i64 %1, 1099511627776
  br i1 %.not27.i, label %32, label %26

26:                                               ; preds = %25
  %27 = lshr i64 %1, 40
  %28 = getelementptr inbounds nuw [256 x i8], ptr @LogTable256, i64 0, i64 %27
  %29 = load i8, ptr %28, align 1, !tbaa !35
  %30 = zext i8 %29 to i32
  %31 = add nuw nsw i32 %30, 40
  br label %H5VM_log2_gen.exit

32:                                               ; preds = %25
  %33 = getelementptr inbounds nuw [256 x i8], ptr @LogTable256, i64 0, i64 %10
  %34 = load i8, ptr %33, align 1, !tbaa !35
  %35 = zext i8 %34 to i32
  %36 = add nuw nsw i32 %35, 32
  br label %H5VM_log2_gen.exit

37:                                               ; preds = %9
  %38 = lshr i64 %1, 16
  %.not23.i = icmp samesign ult i64 %1, 65536
  br i1 %.not23.i, label %51, label %39

39:                                               ; preds = %37
  %.not25.i = icmp samesign ult i64 %1, 16777216
  br i1 %.not25.i, label %46, label %40

40:                                               ; preds = %39
  %41 = lshr i64 %1, 24
  %42 = getelementptr inbounds nuw [256 x i8], ptr @LogTable256, i64 0, i64 %41
  %43 = load i8, ptr %42, align 1, !tbaa !35
  %44 = zext i8 %43 to i32
  %45 = add nuw nsw i32 %44, 24
  br label %H5VM_log2_gen.exit

46:                                               ; preds = %39
  %47 = getelementptr inbounds nuw [256 x i8], ptr @LogTable256, i64 0, i64 %38
  %48 = load i8, ptr %47, align 1, !tbaa !35
  %49 = zext i8 %48 to i32
  %50 = add nuw nsw i32 %49, 16
  br label %H5VM_log2_gen.exit

51:                                               ; preds = %37
  %.not24.i = icmp samesign ult i64 %1, 256
  br i1 %.not24.i, label %58, label %52

52:                                               ; preds = %51
  %53 = lshr i64 %1, 8
  %54 = getelementptr inbounds nuw [256 x i8], ptr @LogTable256, i64 0, i64 %53
  %55 = load i8, ptr %54, align 1, !tbaa !35
  %56 = zext i8 %55 to i32
  %57 = add nuw nsw i32 %56, 8
  br label %H5VM_log2_gen.exit

58:                                               ; preds = %51
  %59 = getelementptr inbounds nuw [256 x i8], ptr @LogTable256, i64 0, i64 %1
  %60 = load i8, ptr %59, align 1, !tbaa !35
  %61 = zext i8 %60 to i32
  br label %H5VM_log2_gen.exit

H5VM_log2_gen.exit:                               ; preds = %14, %20, %26, %32, %40, %46, %52, %58
  %.0.i = phi i32 [ %19, %14 ], [ %24, %20 ], [ %31, %26 ], [ %36, %32 ], [ %45, %40 ], [ %50, %46 ], [ %57, %52 ], [ %61, %58 ]
  %62 = getelementptr inbounds nuw i8, ptr %0, i64 64
  %63 = load i32, ptr %62, align 8, !tbaa !20
  %64 = add nuw nsw i32 %.0.i, 1
  %65 = sub i32 %64, %63
  br label %66

66:                                               ; preds = %H5VM_log2_gen.exit, %2
  %.0 = phi i32 [ %65, %H5VM_log2_gen.exit ], [ 0, %2 ]
  ret i32 %.0
}